Certificate:
    Data:
        Version: 3 (0x2)
        Serial Number: 1 (0x1)
    Signature Algorithm: sha256WithRSAEncryption
        Issuer: C=US, ST=California, O=ON.Lab, OU=Test Deployment, CN=MySite Intermediate CA
        Validity
            Not Before: Jul 31 02:16:19 2017 GMT
            Not After : Jul 31 02:16:19 2018 GMT
        Subject: C=US, ST=California, L=Menlo Park, O=ON.Lab, OU=Test Deployment, CN=xos-core.cord.lab
        Subject Public Key Info:
            Public Key Algorithm: rsaEncryption
                Public-Key: (2048 bit)
                Modulus:
                    00:b9:b9:7e:ba:75:fb:8d:85:f4:25:bf:0c:5c:b0:
                    b2:53:b5:49:46:00:d8:9f:2f:86:c5:f4:d0:6a:58:
                    b4:82:b6:47:6a:9c:4a:54:4b:59:90:0b:35:97:ef:
                    23:17:ba:b6:f6:42:f3:50:ec:b7:ea:33:75:67:bc:
                    49:b2:4d:e8:a2:3d:ec:2a:e0:c4:df:c0:e1:5a:17:
                    60:58:77:1e:f8:fe:af:ae:03:d6:a6:ff:de:ad:7f:
                    11:f5:c3:e5:95:ad:c4:27:87:aa:14:5b:f2:3d:40:
                    4e:5f:2d:f3:e5:83:fb:10:b5:37:17:4a:42:62:7b:
                    d7:08:11:b3:aa:2c:dc:1f:11:26:6f:15:7c:6b:f3:
                    bb:4a:7a:87:34:d0:d6:ce:4d:66:05:51:db:dc:c7:
                    a3:1b:15:4d:f7:5d:7d:a4:1d:e6:ab:a1:f0:9c:63:
                    6f:b6:b5:72:81:07:da:ca:29:40:c8:ee:85:61:2a:
                    d6:15:7a:b6:41:ae:07:9a:d8:21:55:89:24:2b:20:
                    71:92:ac:6a:a2:37:f8:e0:47:0c:15:26:14:24:58:
                    58:07:62:c4:e0:f0:dc:63:27:1b:d1:66:4b:8b:0b:
                    4f:48:97:1a:46:6f:d8:a5:9a:5e:0d:c7:b0:37:9c:
                    20:2d:76:95:5a:af:52:2a:fd:c4:2a:4c:d4:3d:6b:
                    7e:09
                Exponent: 65537 (0x10001)
        X509v3 extensions:
            X509v3 Subject Key Identifier: 
                4B:72:37:73:5E:96:41:48:86:0A:8C:1A:19:87:75:B2:77:E8:5A:10
            X509v3 Authority Key Identifier: 
                keyid:6B:48:BB:7C:6C:E9:56:6D:86:9A:45:0C:D6:9F:48:05:F8:B7:E1:93
                DirName:/C=US/ST=California/L=Menlo Park/O=ON.Lab/OU=Test Deployment/CN=CORD Test Deployment Root CA
                serial:10:00

            X509v3 Basic Constraints: 
                CA:FALSE
            X509v3 Key Usage: critical
                Digital Signature, Key Encipherment
            X509v3 Extended Key Usage: 
                TLS Web Server Authentication
            X509v3 Subject Alternative Name: 
                DNS:xos-core.cord.lab
    Signature Algorithm: sha256WithRSAEncryption
         4a:ae:43:95:e4:fc:37:53:5a:cc:f2:4d:26:16:d2:01:91:4a:
         8d:8e:08:47:07:a2:2b:e9:45:72:7c:69:75:e3:0b:4d:73:24:
         b6:0a:cc:8c:c5:a1:9f:47:da:3c:db:3a:06:e5:a3:fd:71:f0:
         ab:5b:82:e5:3a:a2:d1:d4:6f:59:a9:f0:be:49:88:a8:ce:e1:
         37:dd:a8:13:2b:95:28:d0:d8:12:33:cb:df:b8:56:3b:0c:c5:
         fb:a6:03:4b:3f:9d:42:21:97:1b:6a:71:db:3b:4c:f1:9d:4e:
         cd:7e:1b:96:14:36:4b:14:95:a1:70:28:e0:3b:bb:83:c1:5c:
         2d:64:c3:0e:9f:aa:75:18:60:4b:be:27:b2:bc:b8:41:c6:23:
         69:e6:e9:32:82:af:1d:63:6a:61:9f:19:b3:58:2b:e5:3c:0e:
         32:55:ca:d8:e4:dd:06:dc:97:b4:29:54:f3:e6:74:21:4d:fb:
         2a:43:43:f0:19:b7:55:3c:0b:42:52:37:b1:bf:84:d7:77:3c:
         d5:8d:34:1a:37:5c:a7:1f:bf:3a:b5:4e:ff:46:17:bd:9c:b4:
         00:33:67:9e:09:7b:08:32:db:26:d1:ba:0e:36:2d:66:2f:e0:
         75:09:e6:cf:ef:43:4d:e7:96:48:98:ae:15:f6:76:80:33:d5:
         f4:71:a5:32:0b:2c:bc:41:8c:3d:28:bf:9d:b9:5b:13:61:5b:
         99:0c:67:af:75:54:e0:05:96:49:2c:83:2e:17:f4:77:3c:f6:
         a0:1c:0c:a0:52:d3:cd:d2:8d:2f:fd:cd:53:b3:fb:67:d5:e8:
         6b:0b:b3:a4:6b:37:56:d6:d8:3d:3a:70:22:99:c5:35:8b:f0:
         bc:99:30:5f:be:16:01:a9:c3:86:15:fe:b7:c3:1d:63:f0:87:
         f9:19:07:15:fd:e8:f1:3d:b1:f8:73:c7:7e:c6:31:15:38:99:
         93:99:7e:aa:07:28:c7:91:66:93:fc:93:28:48:c6:ba:38:97:
         d9:ca:c9:6f:8b:de:2a:4a:d4:96:f5:de:cf:f8:69:00:59:9c:
         58:b7:10:12:66:5e:ac:92:34:7f:34:d6:9f:87:99:76:74:be:
         09:11:6d:6f:6e:56:49:9f:6e:e1:d4:e6:6c:43:55:97:81:97:
         15:f8:b2:e3:74:c9:d7:07:ca:3c:10:82:17:4f:47:0f:d6:a1:
         28:b8:22:bc:37:7a:8a:e3:ed:66:6e:15:e4:20:3e:47:7c:f6:
         fa:7e:e9:b2:c4:22:76:7d:ff:a5:e7:af:bb:32:6e:3a:8f:59:
         1b:1c:5c:b2:fd:f6:4b:8d:ac:a8:9e:0b:58:6b:f8:2a:7e:cf:
         ce:1a:59:e1:5e:cc:ab:7f
-----BEGIN CERTIFICATE-----
MIIFlDCCA3ygAwIBAgIBATANBgkqhkiG9w0BAQsFADBuMQswCQYDVQQGEwJVUzET
MBEGA1UECAwKQ2FsaWZvcm5pYTEPMA0GA1UECgwGT04uTGFiMRgwFgYDVQQLDA9U
ZXN0IERlcGxveW1lbnQxHzAdBgNVBAMMFk15U2l0ZSBJbnRlcm1lZGlhdGUgQ0Ew
HhcNMTcwNzMxMDIxNjE5WhcNMTgwNzMxMDIxNjE5WjB+MQswCQYDVQQGEwJVUzET
MBEGA1UECAwKQ2FsaWZvcm5pYTETMBEGA1UEBwwKTWVubG8gUGFyazEPMA0GA1UE
CgwGT04uTGFiMRgwFgYDVQQLDA9UZXN0IERlcGxveW1lbnQxGjAYBgNVBAMMEXhv
cy1jb3JlLmNvcmQubGFiMIIBIjANBgkqhkiG9w0BAQEFAAOCAQ8AMIIBCgKCAQEA
ubl+unX7jYX0Jb8MXLCyU7VJRgDYny+GxfTQali0grZHapxKVEtZkAs1l+8jF7q2
9kLzUOy36jN1Z7xJsk3ooj3sKuDE38DhWhdgWHce+P6vrgPWpv/erX8R9cPlla3E
J4eqFFvyPUBOXy3z5YP7ELU3F0pCYnvXCBGzqizcHxEmbxV8a/O7SnqHNNDWzk1m
BVHb3MejGxVN9119pB3mq6HwnGNvtrVygQfayilAyO6FYSrWFXq2Qa4HmtghVYkk
KyBxkqxqojf44EcMFSYUJFhYB2LE4PDcYycb0WZLiwtPSJcaRm/YpZpeDcewN5wg
LXaVWq9SKv3EKkzUPWt+CQIDAQABo4IBKzCCAScwHQYDVR0OBBYEFEtyN3NelkFI
hgqMGhmHdbJ36FoQMIG3BgNVHSMEga8wgayAFGtIu3xs6VZthppFDNafSAX4t+GT
oYGPpIGMMIGJMQswCQYDVQQGEwJVUzETMBEGA1UECAwKQ2FsaWZvcm5pYTETMBEG
A1UEBwwKTWVubG8gUGFyazEPMA0GA1UECgwGT04uTGFiMRgwFgYDVQQLDA9UZXN0
IERlcGxveW1lbnQxJTAjBgNVBAMMHENPUkQgVGVzdCBEZXBsb3ltZW50IFJvb3Qg
Q0GCAhAAMAkGA1UdEwQCMAAwDgYDVR0PAQH/BAQDAgWgMBMGA1UdJQQMMAoGCCsG
AQUFBwMBMBwGA1UdEQQVMBOCEXhvcy1jb3JlLmNvcmQubGFiMA0GCSqGSIb3DQEB
CwUAA4ICAQBKrkOV5Pw3U1rM8k0mFtIBkUqNjghHB6Ir6UVyfGl14wtNcyS2CsyM
xaGfR9o82zoG5aP9cfCrW4LlOqLR1G9ZqfC+SYiozuE33agTK5Uo0NgSM8vfuFY7
DMX7pgNLP51CIZcbanHbO0zxnU7NfhuWFDZLFJWhcCjgO7uDwVwtZMMOn6p1GGBL
vieyvLhBxiNp5ukygq8dY2phnxmzWCvlPA4yVcrY5N0G3Je0KVTz5nQhTfsqQ0Pw
GbdVPAtCUjexv4TXdzzVjTQaN1ynH786tU7/Rhe9nLQAM2eeCXsIMtsm0boONi1m
L+B1CebP70NN55ZImK4V9naAM9X0caUyCyy8QYw9KL+duVsTYVuZDGevdVTgBZZJ
LIMuF/R3PPagHAygUtPN0o0v/c1Ts/tn1ehrC7OkazdW1tg9OnAimcU1i/C8mTBf
vhYBqcOGFf63wx1j8If5GQcV/ejxPbH4c8d+xjEVOJmTmX6qByjHkWaT/JMoSMa6
OJfZyslvi94qStSW9d7P+GkAWZxYtxASZl6skjR/NNafh5l2dL4JEW1vblZJn27h
1OZsQ1WXgZcV+LLjdMnXB8o8EIIXT0cP1qEouCK8N3qK4+1mbhXkID5HfPb6fumy
xCJ2ff+l56+7Mm46j1kbHFyy/fZLjayongtYa/gqfs/OGlnhXsyrfw==
-----END CERTIFICATE-----
