Certificate:
    Data:
        Version: 3 (0x2)
        Serial Number: 4096 (0x1000)
    Signature Algorithm: sha256WithRSAEncryption
        Issuer: C=US, ST=California, L=Menlo Park, O=ON.Lab, OU=Test Deployment, CN=CORD Test Deployment Root CA
        Validity
            Not Before: Jul 31 02:16:18 2017 GMT
            Not After : Jul 31 02:16:18 2019 GMT
        Subject: C=US, ST=California, O=ON.Lab, OU=Test Deployment, CN=MySite Intermediate CA
        Subject Public Key Info:
            Public Key Algorithm: rsaEncryption
                Public-Key: (4096 bit)
                Modulus:
                    00:d2:31:45:21:ca:f9:d6:8d:d9:85:a1:d7:03:f0:
                    ae:fa:d6:48:04:d2:39:72:11:2a:81:5d:d5:9e:08:
                    72:cc:b0:a8:49:d0:aa:3b:0c:d9:52:e3:26:60:44:
                    32:62:43:ba:19:c9:27:6a:9c:d3:a4:90:3d:f6:aa:
                    9a:5a:3c:c4:64:5a:e8:d9:cd:34:87:12:ac:bf:0a:
                    b3:d4:02:e8:9b:06:3d:73:00:d0:f9:d7:67:7f:05:
                    ca:2f:05:ce:b2:81:77:3e:e8:f3:40:43:19:b0:d7:
                    19:6f:f8:6a:a5:e2:a7:7e:08:a7:66:c6:4f:81:64:
                    82:e5:8e:91:ae:40:f4:f7:44:9a:d3:65:09:98:ad:
                    9d:37:93:f6:44:9d:3f:61:d7:fb:2e:17:46:16:68:
                    8c:2a:01:b7:03:3e:f2:62:8b:c1:26:62:3d:ed:9c:
                    10:d5:ac:9c:29:3d:02:ef:db:01:9d:51:e0:60:b8:
                    f7:e0:fe:57:d9:1b:59:b0:4a:22:38:77:b9:3f:47:
                    1e:e4:87:d6:97:c8:c9:5f:92:b0:c5:92:e1:a1:e9:
                    bb:0b:6b:89:92:27:80:77:64:9d:ff:ce:c5:e9:a5:
                    e3:21:28:f1:84:b9:34:4e:28:fa:07:31:e6:ac:39:
                    02:bb:7b:2c:b9:30:b6:e8:3f:bb:19:d7:05:74:a1:
                    fe:16:c8:ac:c8:2a:2a:db:2d:cf:2b:8a:d2:d1:bd:
                    0f:2a:51:68:0a:86:d5:f9:d3:7d:07:2d:d9:3c:e1:
                    ee:6b:7f:6d:b3:9f:07:0f:b3:a2:fa:86:5a:2c:16:
                    61:a2:0d:94:31:37:cb:13:7a:dc:90:cb:5f:39:32:
                    d9:d0:2b:54:ea:94:09:a1:f0:f8:58:3e:62:82:f8:
                    e5:6c:12:01:e1:22:ec:6c:89:52:7a:af:97:76:c4:
                    55:6d:72:fc:9a:3d:99:cf:d6:32:82:6f:43:79:66:
                    75:59:f2:e7:25:4d:0a:e7:bf:ea:15:79:2b:49:88:
                    52:21:bb:f4:d2:0f:b5:59:99:f7:8c:b9:a0:12:6d:
                    21:87:66:3e:08:be:f9:fb:76:69:42:e4:b0:bb:43:
                    d1:06:b0:e8:a0:5d:93:7f:c1:72:67:ce:ef:20:7d:
                    3e:23:74:fa:cb:da:b5:e4:0f:38:9f:dd:96:a6:00:
                    64:50:d9:f7:8d:a2:d6:b7:ac:8a:7e:23:25:2a:db:
                    e2:08:4f:d3:ba:da:e9:4e:5d:1f:1d:d1:1e:c2:51:
                    6d:2a:05:7f:01:85:ef:e6:ae:1d:0a:b6:63:fa:86:
                    63:c9:7a:2d:6e:ba:e2:68:fe:37:2f:91:f2:ed:e1:
                    04:b3:e0:2f:5a:1f:d8:25:c4:a0:8b:46:14:78:8e:
                    73:4a:c5
                Exponent: 65537 (0x10001)
        X509v3 extensions:
            X509v3 Subject Key Identifier: 
                6B:48:BB:7C:6C:E9:56:6D:86:9A:45:0C:D6:9F:48:05:F8:B7:E1:93
            X509v3 Authority Key Identifier: 
                keyid:E7:68:4F:E1:83:3C:44:D3:A5:AC:40:E1:67:29:06:62:4E:58:9B:DA

            X509v3 Basic Constraints: critical
                CA:TRUE, pathlen:0
            X509v3 Key Usage: critical
                Digital Signature, Certificate Sign, CRL Sign
    Signature Algorithm: sha256WithRSAEncryption
         1d:77:0d:52:e0:15:30:21:1a:9e:b1:eb:a1:25:11:55:50:47:
         2b:41:aa:05:43:38:b7:ef:fa:db:e5:89:08:99:cc:a2:c2:0c:
         74:da:70:72:68:18:c3:3f:c1:19:b9:4f:9c:65:91:1d:78:b8:
         c2:0d:1b:d7:b1:90:ac:6a:7e:fa:3d:07:8d:f5:82:3e:53:bf:
         3e:6d:70:77:81:2d:1d:20:16:36:26:bd:6d:f5:aa:71:c4:0e:
         a6:85:dd:4f:19:4e:3b:05:72:a0:7d:f9:2b:ea:c1:29:7e:1e:
         a6:df:7a:7d:95:fd:40:c8:72:3d:76:1a:2c:2b:50:4d:bc:48:
         dc:67:fc:47:a1:42:6f:41:dc:39:6c:9a:09:d9:53:fb:f5:4c:
         37:8a:60:67:86:84:6c:f2:ef:87:54:28:aa:a1:4e:c6:d8:cf:
         fb:84:43:12:34:f5:43:2f:2a:39:cd:b6:6e:26:f0:54:71:60:
         dc:3c:3f:4b:38:ca:f9:34:86:80:bb:07:2e:c9:24:e0:7b:cb:
         6a:83:fc:0c:53:c5:df:49:02:3b:d2:56:dc:fc:55:09:14:07:
         45:a4:14:cd:de:6d:c5:b0:16:33:bb:17:00:4e:39:1f:d9:2f:
         cb:73:be:89:c4:97:82:a8:3c:47:92:2b:5f:31:af:dc:b1:31:
         54:2e:f2:bf:73:ea:ee:46:1f:52:9a:d8:0f:6e:83:9c:69:2c:
         9a:66:97:62:14:0b:2f:15:c9:5a:b1:5e:4e:2a:ba:35:c7:93:
         57:c1:dd:17:ad:8e:de:a9:97:f1:f6:cb:aa:79:5b:ec:ca:52:
         fd:72:2a:cb:a2:d0:d4:d8:64:59:df:c1:e6:28:f2:42:90:f2:
         07:39:39:e6:3d:d6:3b:ca:87:3a:9b:1b:1f:bc:44:77:d2:90:
         ec:d8:6d:ac:2b:19:4e:f5:dd:64:f2:e8:b6:4e:a1:e2:4a:0c:
         28:2a:8f:c3:88:44:43:6a:8e:00:ca:f5:cb:c6:05:ec:1d:27:
         45:1c:f2:b7:e5:e1:61:e1:9e:ce:95:9f:cc:07:ae:e7:8e:a2:
         10:27:56:39:4a:91:10:9e:7d:51:3d:a4:a8:f2:79:f0:65:74:
         03:20:f3:73:da:85:07:cf:81:91:5f:99:3a:83:55:30:4e:f1:
         38:88:f0:aa:8f:ef:40:65:ec:1e:5f:73:1b:a3:b2:12:ad:c5:
         80:38:45:81:f8:70:0e:63:96:88:09:e5:8c:25:97:2f:2f:37:
         4a:94:29:12:0a:5b:e4:51:4f:5b:27:04:74:60:bc:0f:8b:f2:
         ca:e9:1c:d6:53:0e:8a:75:81:8e:58:fa:b3:56:6b:10:7d:9b:
         4d:67:59:c9:40:c8:60:59
-----BEGIN CERTIFICATE-----
MIIF2jCCA8KgAwIBAgICEAAwDQYJKoZIhvcNAQELBQAwgYkxCzAJBgNVBAYTAlVT
MRMwEQYDVQQIDApDYWxpZm9ybmlhMRMwEQYDVQQHDApNZW5sbyBQYXJrMQ8wDQYD
VQQKDAZPTi5MYWIxGDAWBgNVBAsMD1Rlc3QgRGVwbG95bWVudDElMCMGA1UEAwwc
Q09SRCBUZXN0IERlcGxveW1lbnQgUm9vdCBDQTAeFw0xNzA3MzEwMjE2MThaFw0x
OTA3MzEwMjE2MThaMG4xCzAJBgNVBAYTAlVTMRMwEQYDVQQIDApDYWxpZm9ybmlh
MQ8wDQYDVQQKDAZPTi5MYWIxGDAWBgNVBAsMD1Rlc3QgRGVwbG95bWVudDEfMB0G
A1UEAwwWTXlTaXRlIEludGVybWVkaWF0ZSBDQTCCAiIwDQYJKoZIhvcNAQEBBQAD
ggIPADCCAgoCggIBANIxRSHK+daN2YWh1wPwrvrWSATSOXIRKoFd1Z4IcsywqEnQ
qjsM2VLjJmBEMmJDuhnJJ2qc06SQPfaqmlo8xGRa6NnNNIcSrL8Ks9QC6JsGPXMA
0PnXZ38Fyi8FzrKBdz7o80BDGbDXGW/4aqXip34Ip2bGT4FkguWOka5A9PdEmtNl
CZitnTeT9kSdP2HX+y4XRhZojCoBtwM+8mKLwSZiPe2cENWsnCk9Au/bAZ1R4GC4
9+D+V9kbWbBKIjh3uT9HHuSH1pfIyV+SsMWS4aHpuwtriZIngHdknf/Oxeml4yEo
8YS5NE4o+gcx5qw5Art7LLkwtug/uxnXBXSh/hbIrMgqKtstzyuK0tG9DypRaAqG
1fnTfQct2Tzh7mt/bbOfBw+zovqGWiwWYaINlDE3yxN63JDLXzky2dArVOqUCaHw
+Fg+YoL45WwSAeEi7GyJUnqvl3bEVW1y/Jo9mc/WMoJvQ3lmdVny5yVNCue/6hV5
K0mIUiG79NIPtVmZ94y5oBJtIYdmPgi++ft2aULksLtD0Qaw6KBdk3/BcmfO7yB9
PiN0+svateQPOJ/dlqYAZFDZ942i1resin4jJSrb4ghP07ra6U5dHx3RHsJRbSoF
fwGF7+auHQq2Y/qGY8l6LW664mj+Ny+R8u3hBLPgL1of2CXEoItGFHiOc0rFAgMB
AAGjZjBkMB0GA1UdDgQWBBRrSLt8bOlWbYaaRQzWn0gF+LfhkzAfBgNVHSMEGDAW
gBTnaE/hgzxE06WsQOFnKQZiTlib2jASBgNVHRMBAf8ECDAGAQH/AgEAMA4GA1Ud
DwEB/wQEAwIBhjANBgkqhkiG9w0BAQsFAAOCAgEAHXcNUuAVMCEanrHroSURVVBH
K0GqBUM4t+/62+WJCJnMosIMdNpwcmgYwz/BGblPnGWRHXi4wg0b17GQrGp++j0H
jfWCPlO/Pm1wd4EtHSAWNia9bfWqccQOpoXdTxlOOwVyoH35K+rBKX4ept96fZX9
QMhyPXYaLCtQTbxI3Gf8R6FCb0HcOWyaCdlT+/VMN4pgZ4aEbPLvh1QoqqFOxtjP
+4RDEjT1Qy8qOc22bibwVHFg3Dw/SzjK+TSGgLsHLskk4HvLaoP8DFPF30kCO9JW
3PxVCRQHRaQUzd5txbAWM7sXAE45H9kvy3O+icSXgqg8R5IrXzGv3LExVC7yv3Pq
7kYfUprYD26DnGksmmaXYhQLLxXJWrFeTiq6NceTV8HdF62O3qmX8fbLqnlb7MpS
/XIqy6LQ1NhkWd/B5ijyQpDyBzk55j3WO8qHOpsbH7xEd9KQ7NhtrCsZTvXdZPLo
tk6h4koMKCqPw4hEQ2qOAMr1y8YF7B0nRRzyt+XhYeGezpWfzAeu546iECdWOUqR
EJ59UT2kqPJ58GV0AyDzc9qFB8+BkV+ZOoNVME7xOIjwqo/vQGXsHl9zG6OyEq3F
gDhFgfhwDmOWiAnljCWXLy83SpQpEgpb5FFPWycEdGC8D4vyyukc1lMOinWBjlj6
s1ZrEH2bTWdZyUDIYFk=
-----END CERTIFICATE-----
